target datalayout = "e-m:e-p270:32:32-p271:32:32-p272:64:64-i64:64-i128:128-f80:128-n8:16:32:64-S128"
target triple = "x86_64-pc-linux-gnu"

%"struct.OpenSubdiv::v3_6_0::Osd::BufferDescriptor" = type { i32, i32, i32 }

; Function Attrs: mustprogress uwtable
define noundef zeroext i1 @_ZN10OpenSubdiv6v3_6_03Osd12OmpEvaluator12EvalStencilsEPKfRKNS1_16BufferDescriptorEPfS7_S8_S7_S8_S7_PKiSA_SA_S4_S4_S4_ii(ptr noundef %0, ptr noundef nonnull align 4 dereferenceable(12) %1, ptr noundef %2, ptr noundef nonnull align 4 dereferenceable(12) %3, ptr noundef %4, ptr noundef nonnull align 4 dereferenceable(12) %5, ptr noundef %6, ptr noundef nonnull align 4 dereferenceable(12) %7, ptr noundef %8, ptr noundef %9, ptr noundef %10, ptr noundef %11, ptr noundef %12, ptr noundef %13, i32 noundef %14, i32 noundef %15) #4 align 2 {
  %17 = alloca i1, align 1
  %18 = alloca ptr, align 8
  %19 = alloca ptr, align 8
  %20 = alloca ptr, align 8
  %21 = alloca ptr, align 8
  %22 = alloca ptr, align 8
  %23 = alloca ptr, align 8
  %24 = alloca ptr, align 8
  %25 = alloca ptr, align 8
  %26 = alloca ptr, align 8
  %27 = alloca ptr, align 8
  %28 = alloca ptr, align 8
  %29 = alloca ptr, align 8
  %30 = alloca ptr, align 8
  %31 = alloca ptr, align 8
  %32 = alloca i32, align 4
  %33 = alloca i32, align 4
  store ptr %0, ptr %18, align 8
  store ptr %1, ptr %19, align 8
  store ptr %2, ptr %20, align 8
  store ptr %3, ptr %21, align 8
  store ptr %4, ptr %22, align 8
  store ptr %5, ptr %23, align 8
  store ptr %6, ptr %24, align 8
  store ptr %7, ptr %25, align 8
  store ptr %8, ptr %26, align 8
  store ptr %9, ptr %27, align 8
  store ptr %10, ptr %28, align 8
  store ptr %11, ptr %29, align 8
  store ptr %12, ptr %30, align 8
  store ptr %13, ptr %31, align 8
  store i32 %14, ptr %32, align 4
  store i32 %15, ptr %33, align 4
  %34 = load i32, ptr %33, align 4
  %35 = load i32, ptr %32, align 4
  %36 = icmp sle i32 %34, %35
  br i1 %36, label %37, label %38

37:                                               ; preds = %16
  store i1 true, ptr %17, align 1
  br label %82

38:                                               ; preds = %16
  %39 = load ptr, ptr %19, align 8
  %40 = getelementptr inbounds nuw %"struct.OpenSubdiv::v3_6_0::Osd::BufferDescriptor", ptr %39, i32 0, i32 1
  %41 = load i32, ptr %40, align 4
  %42 = load ptr, ptr %21, align 8
  %43 = getelementptr inbounds nuw %"struct.OpenSubdiv::v3_6_0::Osd::BufferDescriptor", ptr %42, i32 0, i32 1
  %44 = load i32, ptr %43, align 4
  %45 = icmp ne i32 %41, %44
  br i1 %45, label %46, label %47

46:                                               ; preds = %38
  store i1 false, ptr %17, align 1
  br label %82

47:                                               ; preds = %38
  %48 = load ptr, ptr %19, align 8
  %49 = getelementptr inbounds nuw %"struct.OpenSubdiv::v3_6_0::Osd::BufferDescriptor", ptr %48, i32 0, i32 1
  %50 = load i32, ptr %49, align 4
  %51 = load ptr, ptr %23, align 8
  %52 = getelementptr inbounds nuw %"struct.OpenSubdiv::v3_6_0::Osd::BufferDescriptor", ptr %51, i32 0, i32 1
  %53 = load i32, ptr %52, align 4
  %54 = icmp ne i32 %50, %53
  br i1 %54, label %55, label %56

55:                                               ; preds = %47
  store i1 false, ptr %17, align 1
  br label %82

56:                                               ; preds = %47
  %57 = load ptr, ptr %19, align 8
  %58 = getelementptr inbounds nuw %"struct.OpenSubdiv::v3_6_0::Osd::BufferDescriptor", ptr %57, i32 0, i32 1
  %59 = load i32, ptr %58, align 4
  %60 = load ptr, ptr %25, align 8
  %61 = getelementptr inbounds nuw %"struct.OpenSubdiv::v3_6_0::Osd::BufferDescriptor", ptr %60, i32 0, i32 1
  %62 = load i32, ptr %61, align 4
  %63 = icmp ne i32 %59, %62
  br i1 %63, label %64, label %65

64:                                               ; preds = %56
  store i1 false, ptr %17, align 1
  br label %82

65:                                               ; preds = %56
  %66 = load ptr, ptr %18, align 8
  %67 = load ptr, ptr %19, align 8
  %68 = load ptr, ptr %20, align 8
  %69 = load ptr, ptr %21, align 8
  %70 = load ptr, ptr %22, align 8
  %71 = load ptr, ptr %23, align 8
  %72 = load ptr, ptr %24, align 8
  %73 = load ptr, ptr %25, align 8
  %74 = load ptr, ptr %26, align 8
  %75 = load ptr, ptr %27, align 8
  %76 = load ptr, ptr %28, align 8
  %77 = load ptr, ptr %29, align 8
  %78 = load ptr, ptr %30, align 8
  %79 = load ptr, ptr %31, align 8
  %80 = load i32, ptr %32, align 4
  %81 = load i32, ptr %33, align 4
  call void @_ZN10OpenSubdiv6v3_6_03Osd15OmpEvalStencilsEPKfRKNS1_16BufferDescriptorEPfS6_S7_S6_S7_S6_PKiS9_S9_S3_S3_S3_ii(ptr noundef %66, ptr noundef nonnull align 4 dereferenceable(12) %67, ptr noundef %68, ptr noundef nonnull align 4 dereferenceable(12) %69, ptr noundef %70, ptr noundef nonnull align 4 dereferenceable(12) %71, ptr noundef %72, ptr noundef nonnull align 4 dereferenceable(12) %73, ptr noundef %74, ptr noundef %75, ptr noundef %76, ptr noundef %77, ptr noundef %78, ptr noundef %79, i32 noundef %80, i32 noundef %81)
  store i1 true, ptr %17, align 1
  br label %82

82:                                               ; preds = %65, %64, %55, %46, %37
  %83 = load i1, ptr %17, align 1
  ret i1 %83
}