; Function Attrs: mustprogress uwtable
define noundef zeroext i1 @_ZN10OpenSubdiv6v3_6_03Osd12OmpEvaluator12EvalStencilsEPKfRKNS1_16BufferDescriptorEPfS7_S8_S7_S8_S7_PKiSA_SA_S4_S4_S4_ii(ptr noundef %0, ptr noundef nonnull align 4 dereferenceable(12) %1, ptr noundef %2, ptr noundef nonnull align 4 dereferenceable(12) %3, ptr noundef %4, ptr noundef nonnull align 4 dereferenceable(12) %5, ptr noundef %6, ptr noundef nonnull align 4 dereferenceable(12) %7, ptr noundef %8, ptr noundef %9, ptr noundef %10, ptr noundef %11, ptr noundef %12, ptr noundef %13, i32 noundef %14, i32 noundef %15) local_unnamed_addr #3 align 2 {
  %.not = icmp sgt i32 %15, %14
  br i1 %.not, label %17, label %27

17:                                               ; preds = %16
  %18 = getelementptr inbounds nuw i8, ptr %1, i64 4
  %19 = load i32, ptr %18, align 4
  %20 = getelementptr inbounds nuw i8, ptr %3, i64 4
  %21 = load i32, ptr %20, align 4
  %.not27 = icmp eq i32 %19, %21
  %22 = getelementptr inbounds nuw i8, ptr %5, i64 4
  %23 = load i32, ptr %22, align 4
  %.not28 = icmp eq i32 %19, %23
  %or.cond = select i1 %.not27, i1 %.not28, i1 false
  %24 = getelementptr inbounds nuw i8, ptr %7, i64 4
  %25 = load i32, ptr %24, align 4
  %.not29 = icmp eq i32 %19, %25
  %or.cond32 = select i1 %or.cond, i1 %.not29, i1 false
  br i1 %or.cond32, label %26, label %27

26:                                               ; preds = %17
  tail call void @_ZN10OpenSubdiv6v3_6_03Osd15OmpEvalStencilsEPKfRKNS1_16BufferDescriptorEPfS6_S7_S6_S7_S6_PKiS9_S9_S3_S3_S3_ii(ptr noundef %0, ptr noundef nonnull align 4 dereferenceable(12) %1, ptr noundef %2, ptr noundef nonnull align 4 dereferenceable(12) %3, ptr noundef %4, ptr noundef nonnull align 4 dereferenceable(12) %5, ptr noundef %6, ptr noundef nonnull align 4 dereferenceable(12) %7, ptr noundef %8, ptr noundef %9, ptr noundef %10, ptr noundef %11, ptr noundef %12, ptr noundef %13, i32 noundef %14, i32 noundef %15)
  br label %27

27:                                               ; preds = %17, %16, %26
  %.0 = phi i1 [ true, %26 ], [ true, %16 ], [ false, %17 ]
  ret i1 %.0
}